; Function Attrs: nounwind uwtable
define internal fastcc i32 @asn1_i2d_ex_primitive(ptr noundef %0, ptr noundef %1, ptr noundef %2, i32 noundef %3, i32 noundef %4) unnamed_addr #0 {
  %6 = alloca i32, align 4
  call void @llvm.lifetime.start.p0(i64 4, ptr nonnull %6) #10
  %7 = getelementptr inbounds nuw i8, ptr %2, i64 8
  %8 = load i64, ptr %7, align 8, !tbaa !46
  %9 = trunc i64 %8 to i32
  store i32 %9, ptr %6, align 4, !tbaa !28
  %10 = call i32 @asn1_ex_i2c(ptr noundef %0, ptr noundef null, ptr noundef nonnull %6, ptr noundef %2)
  %11 = load i32, ptr %6, align 4, !tbaa !28
  %12 = icmp eq i32 %10, -1
  br i1 %12, label %29, label %13

13:                                               ; preds = %5
  %.not37 = icmp eq i32 %10, -2
  %spec.select = select i1 %.not37, i32 0, i32 %10
  %spec.select39 = select i1 %.not37, i32 2, i32 0
  %14 = icmp eq i32 %3, -1
  %.031 = select i1 %14, i32 %11, i32 %3
  %.not = icmp eq ptr %1, null
  br i1 %.not, label %26, label %15

15:                                               ; preds = %13
  switch i32 %11, label %16 [
    i32 -3, label %17
    i32 17, label %17
    i32 16, label %17
  ]

16:                                               ; preds = %15
  call void @ASN1_put_object(ptr noundef nonnull %1, i32 noundef %spec.select39, i32 noundef %spec.select, i32 noundef %.031, i32 noundef %4) #10
  br label %17

17:                                               ; preds = %15, %15, %15, %16
  %18 = load ptr, ptr %1, align 8, !tbaa !11
  %19 = call i32 @asn1_ex_i2c(ptr noundef %0, ptr noundef %18, ptr noundef nonnull %6, ptr noundef nonnull %2)
  br i1 %.not37, label %20, label %22

20:                                               ; preds = %17
  %21 = call i32 @ASN1_put_eoc(ptr noundef nonnull %1) #10
  br label %26

22:                                               ; preds = %17
  %23 = load ptr, ptr %1, align 8, !tbaa !11
  %24 = sext i32 %10 to i64
  %25 = getelementptr inbounds i8, ptr %23, i64 %24
  store ptr %25, ptr %1, align 8, !tbaa !11
  br label %26

26:                                               ; preds = %20, %22, %13
  switch i32 %11, label %27 [
    i32 -3, label %29
    i32 17, label %29
    i32 16, label %29
  ]

27:                                               ; preds = %26
  %28 = call i32 @ASN1_object_size(i32 noundef %spec.select39, i32 noundef %spec.select, i32 noundef %.031) #10
  br label %29

29:                                               ; preds = %26, %26, %26, %5, %27
  %.030 = phi i32 [ %28, %27 ], [ 0, %5 ], [ %spec.select, %26 ], [ %spec.select, %26 ], [ %spec.select, %26 ]
  call void @llvm.lifetime.end.p0(i64 4, ptr nonnull %6) #10
  ret i32 %.030
}